target datalayout = "e-m:e-p270:32:32-p271:32:32-p272:64:64-i64:64-i128:128-f80:128-n8:16:32:64-S128"
target triple = "x86_64-pc-linux-gnu"

; Function Attrs: nounwind uwtable
define internal i32 @smime_cb(i32 noundef %0, ptr noundef %1) #0 {
  %3 = alloca i32, align 4
  %4 = alloca i32, align 4
  %5 = alloca ptr, align 8
  %6 = alloca i32, align 4
  %7 = alloca i32, align 4
  store i32 %0, ptr %4, align 4, !tbaa !4
  store ptr %1, ptr %5, align 8, !tbaa !44
  call void @llvm.lifetime.start.p0(i64 4, ptr %6) #4
  %8 = load ptr, ptr %5, align 8, !tbaa !44
  %9 = call i32 @X509_STORE_CTX_get_error(ptr noundef %8)
  store i32 %9, ptr %6, align 4, !tbaa !4
  %10 = load i32, ptr %6, align 4, !tbaa !4
  %11 = icmp ne i32 %10, 43
  br i1 %11, label %12, label %20

12:                                               ; preds = %2
  %13 = load i32, ptr %6, align 4, !tbaa !4
  %14 = icmp ne i32 %13, 0
  br i1 %14, label %18, label %15

15:                                               ; preds = %12
  %16 = load i32, ptr %4, align 4, !tbaa !4
  %17 = icmp ne i32 %16, 2
  br i1 %17, label %18, label %20

18:                                               ; preds = %15, %12
  %19 = load i32, ptr %4, align 4, !tbaa !4
  store i32 %19, ptr %3, align 4
  store i32 1, ptr %7, align 4
  br label %23

20:                                               ; preds = %15, %2
  %21 = load ptr, ptr %5, align 8, !tbaa !44
  call void @policies_print(ptr noundef %21)
  %22 = load i32, ptr %4, align 4, !tbaa !4
  store i32 %22, ptr %3, align 4
  store i32 1, ptr %7, align 4
  br label %23

23:                                               ; preds = %20, %18
  call void @llvm.lifetime.end.p0(i64 4, ptr %6) #4
  %24 = load i32, ptr %3, align 4
  ret i32 %24
}