; Function Attrs: nounwind uwtable
define internal noundef i32 @smime_cb(i32 noundef returned %0, ptr noundef %1) #0 {
  %3 = tail call i32 @X509_STORE_CTX_get_error(ptr noundef %1) #4
  %.not = icmp eq i32 %3, 43
  br i1 %.not, label %7, label %4

4:                                                ; preds = %2
  %5 = icmp ne i32 %3, 0
  %6 = icmp ne i32 %0, 2
  %or.cond = or i1 %6, %5
  br i1 %or.cond, label %8, label %7

7:                                                ; preds = %4, %2
  tail call void @policies_print(ptr noundef %1) #4
  br label %8

8:                                                ; preds = %4, %7
  ret i32 %0
}